; Function Attrs: mustprogress uwtable
define hidden noundef zeroext i1 @_ZN18OpenImageIO_v2_6_08DDSInput5closeEv(ptr noundef nonnull align 8 dereferenceable(448) %this) unnamed_addr #11 align 2 personality ptr @__gxx_personality_v0 {
entry:
  %m_subimage.i = getelementptr inbounds i8, ptr %this, i64 240
  store i32 -1, ptr %m_subimage.i, align 8
  %m_miplevel.i = getelementptr inbounds i8, ptr %this, i64 244
  store i32 -1, ptr %m_miplevel.i, align 4
  %m_buf.i = getelementptr inbounds i8, ptr %this, i64 216
  %0 = load ptr, ptr %m_buf.i, align 8
  %_M_finish.i.i.i = getelementptr inbounds i8, ptr %this, i64 224
  %1 = load ptr, ptr %_M_finish.i.i.i, align 8
  %tobool.not.i.i.i = icmp eq ptr %1, %0
  br i1 %tobool.not.i.i.i, label %_ZN18OpenImageIO_v2_6_08DDSInput4initEv.exit, label %invoke.cont.i.i.i

invoke.cont.i.i.i:                                ; preds = %entry
  store ptr %0, ptr %_M_finish.i.i.i, align 8
  br label %_ZN18OpenImageIO_v2_6_08DDSInput4initEv.exit

_ZN18OpenImageIO_v2_6_08DDSInput4initEv.exit:     ; preds = %entry, %invoke.cont.i.i.i
  tail call void @_ZN18OpenImageIO_v2_6_010ImageInput13ioproxy_clearEv(ptr noundef nonnull align 8 dereferenceable(184) %this)
  ret i1 true
}